; Function Attrs: mustprogress uwtable
define noundef i32 @_ZN3gmx25ICommandLineOptionsModule9runAsMainEiPPcPKcS4_St8functionIFSt10unique_ptrIS0_St14default_deleteIS0_EEvEE(i32 noundef %0, ptr noundef %1, ptr noundef %2, ptr noundef %3, ptr noundef captures(none) %4) local_unnamed_addr #3 align 2 personality ptr @__gxx_personality_v0 {
  %6 = alloca %"class.gmx::(anonymous namespace)::CommandLineOptionsModule", align 8
  %.sroa.0 = alloca { i64, i64 }, align 8
  call void @llvm.lifetime.start.p0(i64 64, ptr nonnull %6) #22
  %7 = getelementptr inbounds nuw i8, ptr %4, i64 24
  call void @llvm.memset.p0.i64(ptr noundef nonnull align 8 dereferenceable(16) %.sroa.0, i8 0, i64 16, i1 false)
  %8 = load ptr, ptr %7, align 8, !tbaa !27
  %9 = getelementptr inbounds nuw i8, ptr %4, i64 16
  %10 = load ptr, ptr %9, align 8, !tbaa !26
  %.not.i.i.not.i = icmp eq ptr %10, null
  br i1 %.not.i.i.not.i, label %_ZNSt8functionIFSt10unique_ptrIN3gmx25ICommandLineOptionsModuleESt14default_deleteIS2_EEvEEC2EOS7_.exit, label %11

11:                                               ; preds = %5
  call void @llvm.memcpy.p0.p0.i64(ptr noundef nonnull align 8 dereferenceable(16) %.sroa.0, ptr noundef nonnull align 8 dereferenceable(16) %4, i64 16, i1 false), !tbaa.struct !72
  tail call void @llvm.memset.p0.i64(ptr noundef nonnull align 8 dereferenceable(16) %9, i8 0, i64 16, i1 false)
  br label %_ZNSt8functionIFSt10unique_ptrIN3gmx25ICommandLineOptionsModuleESt14default_deleteIS2_EEvEEC2EOS7_.exit

_ZNSt8functionIFSt10unique_ptrIN3gmx25ICommandLineOptionsModuleESt14default_deleteIS2_EEvEEC2EOS7_.exit: ; preds = %5, %11
  store ptr getelementptr inbounds nuw inrange(-16, 56) (i8, ptr @_ZTVN3gmx12_GLOBAL__N_124CommandLineOptionsModuleE, i64 16), ptr %6, align 8, !tbaa !9
  %12 = getelementptr inbounds nuw i8, ptr %6, i64 8
  store ptr %2, ptr %12, align 8, !tbaa !11
  %13 = getelementptr inbounds nuw i8, ptr %6, i64 16
  store ptr %3, ptr %13, align 8, !tbaa !23
  %14 = getelementptr inbounds nuw i8, ptr %6, i64 24
  %15 = getelementptr inbounds nuw i8, ptr %6, i64 48
  call void @llvm.memset.p0.i64(ptr noundef nonnull align 8 dereferenceable(32) %14, i8 0, i64 24, i1 false)
  store ptr %8, ptr %15, align 8, !tbaa !27
  %.not.i.i.not.i.i = icmp eq ptr %10, null
  br i1 %.not.i.i.not.i.i, label %_ZNSt14_Function_baseD2Ev.exit, label %_ZN3gmx12_GLOBAL__N_124CommandLineOptionsModuleC2EPKcS3_St8functionIFSt10unique_ptrINS_25ICommandLineOptionsModuleESt14default_deleteIS6_EEvEE.exit

_ZN3gmx12_GLOBAL__N_124CommandLineOptionsModuleC2EPKcS3_St8functionIFSt10unique_ptrINS_25ICommandLineOptionsModuleESt14default_deleteIS6_EEvEE.exit: ; preds = %_ZNSt8functionIFSt10unique_ptrIN3gmx25ICommandLineOptionsModuleESt14default_deleteIS2_EEvEEC2EOS7_.exit
  %16 = getelementptr inbounds nuw i8, ptr %6, i64 40
  call void @llvm.memcpy.p0.p0.i64(ptr noundef nonnull align 8 dereferenceable(16) %14, ptr noundef nonnull align 8 dereferenceable(16) %.sroa.0, i64 16, i1 false), !tbaa.struct !72
  store ptr %10, ptr %16, align 8, !tbaa !26
  br label %_ZNSt14_Function_baseD2Ev.exit

_ZNSt14_Function_baseD2Ev.exit:                   ; preds = %_ZNSt8functionIFSt10unique_ptrIN3gmx25ICommandLineOptionsModuleESt14default_deleteIS2_EEvEEC2EOS7_.exit, %_ZN3gmx12_GLOBAL__N_124CommandLineOptionsModuleC2EPKcS3_St8functionIFSt10unique_ptrINS_25ICommandLineOptionsModuleESt14default_deleteIS6_EEvEE.exit
  %17 = getelementptr inbounds nuw i8, ptr %6, i64 56
  store ptr null, ptr %17, align 8, !tbaa !73
  %18 = invoke noundef i32 @_ZN3gmx24CommandLineModuleManager21runAsMainSingleModuleEiPPcPNS_18ICommandLineModuleE(i32 noundef %0, ptr noundef %1, ptr noundef nonnull %6)
          to label %19 unwind label %31

19:                                               ; preds = %_ZNSt14_Function_baseD2Ev.exit
  store ptr getelementptr inbounds nuw inrange(-16, 56) (i8, ptr @_ZTVN3gmx12_GLOBAL__N_124CommandLineOptionsModuleE, i64 16), ptr %6, align 8, !tbaa !9
  %20 = load ptr, ptr %17, align 8, !tbaa !4
  %.not.i.i = icmp eq ptr %20, null
  br i1 %.not.i.i, label %_ZNSt10unique_ptrIN3gmx25ICommandLineOptionsModuleESt14default_deleteIS1_EED2Ev.exit.i, label %_ZNKSt14default_deleteIN3gmx25ICommandLineOptionsModuleEEclEPS1_.exit.i.i

_ZNKSt14default_deleteIN3gmx25ICommandLineOptionsModuleEEclEPS1_.exit.i.i: ; preds = %19
  %21 = load ptr, ptr %20, align 8, !tbaa !9
  %22 = getelementptr inbounds nuw i8, ptr %21, i64 8
  %23 = load ptr, ptr %22, align 8
  call void %23(ptr noundef nonnull align 8 dereferenceable(8) %20) #22
  br label %_ZNSt10unique_ptrIN3gmx25ICommandLineOptionsModuleESt14default_deleteIS1_EED2Ev.exit.i

_ZNSt10unique_ptrIN3gmx25ICommandLineOptionsModuleESt14default_deleteIS1_EED2Ev.exit.i: ; preds = %_ZNKSt14default_deleteIN3gmx25ICommandLineOptionsModuleEEclEPS1_.exit.i.i, %19
  store ptr null, ptr %17, align 8, !tbaa !4
  %24 = getelementptr inbounds nuw i8, ptr %6, i64 40
  %25 = load ptr, ptr %24, align 8, !tbaa !26
  %.not.i1.i = icmp eq ptr %25, null
  br i1 %.not.i1.i, label %_ZN3gmx12_GLOBAL__N_124CommandLineOptionsModuleD2Ev.exit, label %26

26:                                               ; preds = %_ZNSt10unique_ptrIN3gmx25ICommandLineOptionsModuleESt14default_deleteIS1_EED2Ev.exit.i
  %27 = invoke noundef zeroext i1 %25(ptr noundef nonnull align 8 dereferenceable(32) %14, ptr noundef nonnull align 8 dereferenceable(32) %14, i32 noundef 3)
          to label %_ZN3gmx12_GLOBAL__N_124CommandLineOptionsModuleD2Ev.exit unwind label %28

28:                                               ; preds = %26
  %29 = landingpad { ptr, i32 }
          catch ptr null
  %30 = extractvalue { ptr, i32 } %29, 0
  call void @__clang_call_terminate(ptr %30) #20
  unreachable

_ZN3gmx12_GLOBAL__N_124CommandLineOptionsModuleD2Ev.exit: ; preds = %_ZNSt10unique_ptrIN3gmx25ICommandLineOptionsModuleESt14default_deleteIS1_EED2Ev.exit.i, %26
  call void @llvm.lifetime.end.p0(i64 64, ptr nonnull %6) #22
  ret i32 %18

31:                                               ; preds = %_ZNSt14_Function_baseD2Ev.exit
  %32 = landingpad { ptr, i32 }
          cleanup
  call void @_ZN3gmx12_GLOBAL__N_124CommandLineOptionsModuleD2Ev(ptr noundef nonnull align 8 dereferenceable(64) %6) #22
  call void @llvm.lifetime.end.p0(i64 64, ptr nonnull %6) #22
  resume { ptr, i32 } %32
}